target datalayout = "e-m:e-p270:32:32-p271:32:32-p272:64:64-i64:64-i128:128-f80:128-n8:16:32:64-S128"
target triple = "x86_64-pc-linux-gnu"

%struct._object = type { %union.anon, ptr }
%union.anon = type { i64 }
%struct.fileio = type { %struct._object, i32, i8, i8, ptr, ptr, ptr }

@PyExc_ValueError = external global ptr, align 8
@.str.35 = private unnamed_addr constant [29 x i8] c"I/O operation on closed file\00", align 1

; Function Attrs: nounwind uwtable
define internal ptr @err_closed() #0 {
  %1 = load ptr, ptr @PyExc_ValueError, align 8, !tbaa !4
  call void @PyErr_SetString(ptr noundef %1, ptr noundef @.str.35)
  ret ptr null
}

; Function Attrs: nounwind uwtable
define internal ptr @_io_FileIO_isatty_impl(ptr noundef %0) #0 {
  %2 = alloca ptr, align 8
  %3 = alloca ptr, align 8
  %4 = alloca i64, align 8
  %5 = alloca i32, align 4
  %6 = alloca ptr, align 8
  store ptr %0, ptr %3, align 8, !tbaa !15
  call void @llvm.lifetime.start.p0(i64 8, ptr %4) #9
  %7 = load ptr, ptr %3, align 8, !tbaa !15
  %8 = getelementptr inbounds nuw %struct.fileio, ptr %7, i32 0, i32 1
  %9 = load i32, ptr %8, align 8, !tbaa !9
  %10 = icmp slt i32 %9, 0
  br i1 %10, label %11, label %13

11:                                               ; preds = %1
  %12 = call ptr @err_closed()
  store ptr %12, ptr %2, align 8
  store i32 1, ptr %5, align 4
  br label %23

13:                                               ; preds = %1
  call void @llvm.lifetime.start.p0(i64 8, ptr %6) #9
  %14 = call ptr @PyEval_SaveThread()
  store ptr %14, ptr %6, align 8, !tbaa !53
  %15 = load ptr, ptr %3, align 8, !tbaa !15
  %16 = getelementptr inbounds nuw %struct.fileio, ptr %15, i32 0, i32 1
  %17 = load i32, ptr %16, align 8, !tbaa !9
  %18 = call i32 @isatty(i32 noundef %17) #9
  %19 = sext i32 %18 to i64
  store i64 %19, ptr %4, align 8, !tbaa !35
  %20 = load ptr, ptr %6, align 8, !tbaa !53
  call void @PyEval_RestoreThread(ptr noundef %20)
  call void @llvm.lifetime.end.p0(i64 8, ptr %6) #9
  %21 = load i64, ptr %4, align 8, !tbaa !35
  %22 = call ptr @PyBool_FromLong(i64 noundef %21)
  store ptr %22, ptr %2, align 8
  store i32 1, ptr %5, align 4
  br label %23

23:                                               ; preds = %13, %11
  call void @llvm.lifetime.end.p0(i64 8, ptr %4) #9
  %24 = load ptr, ptr %2, align 8
  ret ptr %24
}

; Function Attrs: nounwind uwtable
define internal ptr @_io_FileIO_isatty(ptr noundef %0, ptr noundef %1) #0 {
  %3 = alloca ptr, align 8
  %4 = alloca ptr, align 8
  store ptr %0, ptr %3, align 8, !tbaa !4
  store ptr %1, ptr %4, align 8, !tbaa !4
  %5 = load ptr, ptr %3, align 8, !tbaa !4
  %6 = call ptr @_io_FileIO_isatty_impl(ptr noundef %5)
  ret ptr %6
}