; Function Attrs: nounwind uwtable
define internal ptr @_io_FileIO_isatty(ptr noundef readonly captures(none) %0, ptr readnone captures(none) %1) #1 {
  %3 = getelementptr inbounds nuw i8, ptr %0, i64 16
  %4 = load i32, ptr %3, align 8, !tbaa !4
  %5 = icmp slt i32 %4, 0
  br i1 %5, label %6, label %8

6:                                                ; preds = %2
  %7 = load ptr, ptr @PyExc_ValueError, align 8, !tbaa !21
  tail call void @PyErr_SetString(ptr noundef %7, ptr noundef nonnull @.str.35) #10
  br label %_io_FileIO_isatty_impl.exit

8:                                                ; preds = %2
  %9 = tail call ptr @PyEval_SaveThread() #10
  %10 = load i32, ptr %3, align 8, !tbaa !4
  %11 = tail call i32 @isatty(i32 noundef %10) #10
  %12 = sext i32 %11 to i64
  tail call void @PyEval_RestoreThread(ptr noundef %9) #10
  %13 = tail call ptr @PyBool_FromLong(i64 noundef %12) #10
  br label %_io_FileIO_isatty_impl.exit

_io_FileIO_isatty_impl.exit:                      ; preds = %6, %8
  %.0.i = phi ptr [ null, %6 ], [ %13, %8 ]
  ret ptr %.0.i
}